; Function Attrs: nounwind uwtable
define hidden noundef i32 @phar_free_alias(ptr nocapture noundef readonly %0, ptr nocapture noundef readnone %1, i64 noundef %2) local_unnamed_addr #0 {
  %4 = getelementptr inbounds i8, ptr %0, i64 272
  %5 = load i32, ptr %4, align 8
  %.not = icmp eq i32 %5, 0
  br i1 %.not, label %6, label %17

6:                                                ; preds = %3
  %7 = getelementptr inbounds i8, ptr %0, i64 324
  %8 = load i16, ptr %7, align 4
  %9 = and i16 %8, 256
  %.not4 = icmp eq i16 %9, 0
  br i1 %.not4, label %10, label %17

10:                                               ; preds = %6
  %11 = load ptr, ptr %0, align 8
  %12 = getelementptr inbounds i8, ptr %0, i64 8
  %13 = load i32, ptr %12, align 8
  %14 = zext i32 %13 to i64
  %15 = tail call i32 @zend_hash_str_del(ptr noundef nonnull getelementptr inbounds (%struct._zend_phar_globals, ptr @phar_globals, i64 0, i32 1), ptr noundef %11, i64 noundef %14) #15
  %.not5 = icmp eq i32 %15, 0
  br i1 %.not5, label %16, label %17

16:                                               ; preds = %10
  store ptr null, ptr getelementptr inbounds (%struct._zend_phar_globals, ptr @phar_globals, i64 0, i32 49), align 8
  store ptr null, ptr getelementptr inbounds (%struct._zend_phar_globals, ptr @phar_globals, i64 0, i32 47), align 8
  store ptr null, ptr getelementptr inbounds (%struct._zend_phar_globals, ptr @phar_globals, i64 0, i32 45), align 8
  br label %17

17:                                               ; preds = %10, %3, %6, %16
  %.0 = phi i32 [ 0, %16 ], [ -1, %6 ], [ -1, %3 ], [ -1, %10 ]
  ret i32 %.0
}